; ModuleID = 'source-C-CXX/23/2669.c'
source_filename = "source-C-CXX/23/2669.c"
target datalayout = "e-m:e-p270:32:32-p271:32:32-p272:64:64-i64:64-f80:128-n8:16:32:64-S128"
target triple = "x86_64-pc-linux-gnu"

@.str = private unnamed_addr constant [3 x i8] c"%d\00", align 1
@.str.1 = private unnamed_addr constant [3 x i8] c"%s\00", align 1
@.str.2 = private unnamed_addr constant [6 x i8] c"%s\0A%s\00", align 1

; Function Attrs: nofree nounwind sspstrong uwtable
define dso_local i32 @main() local_unnamed_addr #0 {
  %1 = alloca i32, align 4
  %2 = alloca [200 x [30 x i8]], align 16
  %3 = bitcast i32* %1 to i8*
  call void @llvm.lifetime.start.p0i8(i64 4, i8* nonnull %3) #4
  %4 = getelementptr inbounds [200 x [30 x i8]], [200 x [30 x i8]]* %2, i64 0, i64 0, i64 0
  call void @llvm.lifetime.start.p0i8(i64 6000, i8* nonnull %4) #4
  %5 = call i32 (i8*, ...) @__isoc99_scanf(i8* getelementptr inbounds ([3 x i8], [3 x i8]* @.str, i64 0, i64 0), i32* nonnull %1)
  %6 = load i32, i32* %1, align 4, !tbaa !5
  %7 = add nsw i32 %6, -1
  store i32 %7, i32* %1, align 4, !tbaa !5
  %8 = icmp eq i32 %6, 0
  br i1 %8, label %35, label %9

9:                                                ; preds = %0, %9
  %10 = phi i64 [ %28, %9 ], [ 0, %0 ]
  %11 = phi i32 [ %27, %9 ], [ 30, %0 ]
  %12 = phi i32 [ %23, %9 ], [ 0, %0 ]
  %13 = phi i32 [ %26, %9 ], [ undef, %0 ]
  %14 = phi i32 [ %22, %9 ], [ undef, %0 ]
  %15 = getelementptr inbounds [200 x [30 x i8]], [200 x [30 x i8]]* %2, i64 0, i64 %10, i64 0
  %16 = call i32 (i8*, ...) @__isoc99_scanf(i8* getelementptr inbounds ([3 x i8], [3 x i8]* @.str.1, i64 0, i64 0), i8* nonnull %15)
  %17 = sext i32 %12 to i64
  %18 = call i64 @strlen(i8* noundef nonnull %15) #5
  %19 = icmp ugt i64 %18, %17
  %20 = trunc i64 %18 to i32
  %21 = trunc i64 %10 to i32
  %22 = select i1 %19, i32 %21, i32 %14
  %23 = select i1 %19, i32 %20, i32 %12
  %24 = zext i32 %11 to i64
  %25 = icmp ult i64 %18, %24
  %26 = select i1 %25, i32 %21, i32 %13
  %27 = select i1 %25, i32 %20, i32 %11
  %28 = add nuw i64 %10, 1
  %29 = load i32, i32* %1, align 4, !tbaa !5
  %30 = add nsw i32 %29, -1
  store i32 %30, i32* %1, align 4, !tbaa !5
  %31 = icmp eq i32 %29, 0
  br i1 %31, label %32, label %9, !llvm.loop !9

32:                                               ; preds = %9
  %33 = sext i32 %22 to i64
  %34 = sext i32 %26 to i64
  br label %35

35:                                               ; preds = %32, %0
  %36 = phi i64 [ 0, %0 ], [ %33, %32 ]
  %37 = phi i64 [ 0, %0 ], [ %34, %32 ]
  %38 = getelementptr inbounds [200 x [30 x i8]], [200 x [30 x i8]]* %2, i64 0, i64 %36, i64 0
  %39 = getelementptr inbounds [200 x [30 x i8]], [200 x [30 x i8]]* %2, i64 0, i64 %37, i64 0
  %40 = call i32 (i8*, ...) @printf(i8* nonnull dereferenceable(1) getelementptr inbounds ([6 x i8], [6 x i8]* @.str.2, i64 0, i64 0), i8* nonnull %38, i8* nonnull %39)
  call void @llvm.lifetime.end.p0i8(i64 6000, i8* nonnull %4) #4
  call void @llvm.lifetime.end.p0i8(i64 4, i8* nonnull %3) #4
  ret i32 0
}

; Function Attrs: argmemonly mustprogress nofree nosync nounwind willreturn
declare void @llvm.lifetime.start.p0i8(i64 immarg, i8* nocapture) #1

; Function Attrs: nofree nounwind
declare noundef i32 @__isoc99_scanf(i8* nocapture noundef readonly, ...) local_unnamed_addr #2

; Function Attrs: argmemonly mustprogress nofree nounwind readonly willreturn
declare i64 @strlen(i8* nocapture) local_unnamed_addr #3

; Function Attrs: nofree nounwind
declare noundef i32 @printf(i8* nocapture noundef readonly, ...) local_unnamed_addr #2

; Function Attrs: argmemonly mustprogress nofree nosync nounwind willreturn
declare void @llvm.lifetime.end.p0i8(i64 immarg, i8* nocapture) #1


!llvm.module.flags = !{!0, !1, !2, !3}
!llvm.ident = !{!4}

!0 = !{i32 1, !"wchar_size", i32 4}
!1 = !{i32 7, !"PIC Level", i32 2}
!2 = !{i32 7, !"PIE Level", i32 2}
!3 = !{i32 7, !"uwtable", i32 1}
!4 = !{!"clang version 13.0.0"}
!5 = !{!6, !6, i64 0}
!6 = !{!"int", !7, i64 0}
!7 = !{!"omnipotent char", !8, i64 0}
!8 = !{!"Simple C/C++ TBAA"}
!9 = distinct !{!9, !10}
!10 = !{!"llvm.loop.mustprogress"}
